target datalayout = "e-m:e-p270:32:32-p271:32:32-p272:64:64-i64:64-i128:128-f80:128-n8:16:32:64-S128"
target triple = "x86_64-pc-linux-gnu"

%struct.GISTBuildBuffers = type { ptr, ptr, i64, ptr, i32, i32, ptr, ptr, i32, i32, ptr, i32, ptr, i32, i32, i32 }
%struct.GISTNodeBuffer = type { i32, i32, i32, ptr, i8, i8, i32 }
%struct.GISTNodeBufferPage = type { i32, i32, [0 x i8] }
%struct.IndexTupleData = type { %struct.ItemPointerData, i16 }
%struct.ItemPointerData = type { %struct.BlockIdData, i16 }
%struct.BlockIdData = type { i16, i16 }

@CurrentMemoryContext = external global ptr, align 8
@.str.1 = private unnamed_addr constant [46 x i8] c"could not seek to block %ld in temporary file\00", align 1
@.str.2 = private unnamed_addr constant [19 x i8] c"gistbuildbuffers.c\00", align 1
@__func__.WriteTempFileBlock = private unnamed_addr constant [19 x i8] c"WriteTempFileBlock\00", align 1

; Function Attrs: nounwind uwtable
define internal void @gistPlaceItupToPage(ptr noundef %0, ptr noundef %1) #0 {
  %3 = alloca ptr, align 8
  %4 = alloca ptr, align 8
  %5 = alloca i64, align 8
  %6 = alloca ptr, align 8
  store ptr %0, ptr %3, align 8
  store ptr %1, ptr %4, align 8
  call void @llvm.lifetime.start.p0(i64 8, ptr %5) #7
  %7 = load ptr, ptr %4, align 8
  %8 = call i64 @IndexTupleSize(ptr noundef %7)
  store i64 %8, ptr %5, align 8
  call void @llvm.lifetime.start.p0(i64 8, ptr %6) #7
  %9 = load i64, ptr %5, align 8
  %10 = add i64 %9, 7
  %11 = and i64 %10, -8
  %12 = load ptr, ptr %3, align 8
  %13 = getelementptr inbounds nuw %struct.GISTNodeBufferPage, ptr %12, i32 0, i32 1
  %14 = load i32, ptr %13, align 4
  %15 = zext i32 %14 to i64
  %16 = sub i64 %15, %11
  %17 = trunc i64 %16 to i32
  store i32 %17, ptr %13, align 4
  %18 = load ptr, ptr %3, align 8
  %19 = getelementptr inbounds nuw i8, ptr %18, i64 8
  %20 = load ptr, ptr %3, align 8
  %21 = getelementptr inbounds nuw %struct.GISTNodeBufferPage, ptr %20, i32 0, i32 1
  %22 = load i32, ptr %21, align 4
  %23 = zext i32 %22 to i64
  %24 = getelementptr inbounds nuw i8, ptr %19, i64 %23
  store ptr %24, ptr %6, align 8
  %25 = load ptr, ptr %6, align 8
  %26 = load ptr, ptr %4, align 8
  %27 = load i64, ptr %5, align 8
  call void @llvm.memcpy.p0.p0.i64(ptr align 1 %25, ptr align 2 %26, i64 %27, i1 false)
  call void @llvm.lifetime.end.p0(i64 8, ptr %6) #7
  call void @llvm.lifetime.end.p0(i64 8, ptr %5) #7
  ret void
}

; Function Attrs: nounwind uwtable
define internal void @WriteTempFileBlock(ptr noundef %0, i64 noundef %1, ptr noundef %2) #0 {
  %4 = alloca ptr, align 8
  %5 = alloca i64, align 8
  %6 = alloca ptr, align 8
  store ptr %0, ptr %4, align 8
  store i64 %1, ptr %5, align 8
  store ptr %2, ptr %6, align 8
  %7 = load ptr, ptr %4, align 8
  %8 = load i64, ptr %5, align 8
  %9 = call i32 @BufFileSeekBlock(ptr noundef %7, i64 noundef %8)
  %10 = icmp ne i32 %9, 0
  br i1 %10, label %11, label %22

11:                                               ; preds = %3
  br label %12

12:                                               ; preds = %11
  br i1 true, label %13, label %15

13:                                               ; preds = %12
  %14 = call zeroext i1 @errstart_cold(i32 noundef 21, ptr noundef null) #8
  br i1 %14, label %17, label %20

15:                                               ; preds = %12
  %16 = call zeroext i1 @errstart(i32 noundef 21, ptr noundef null)
  br i1 %16, label %17, label %20

17:                                               ; preds = %15, %13
  %18 = load i64, ptr %5, align 8
  %19 = call i32 (ptr, ...) @errmsg_internal(ptr noundef @.str.1, i64 noundef %18)
  call void @errfinish(ptr noundef @.str.2, i32 noundef 761, ptr noundef @__func__.WriteTempFileBlock)
  br label %20

20:                                               ; preds = %17, %15, %13
  unreachable

21:                                               ; No predecessors!
  br label %22

22:                                               ; preds = %21, %3
  %23 = load ptr, ptr %4, align 8
  %24 = load ptr, ptr %6, align 8
  call void @BufFileWrite(ptr noundef %23, ptr noundef %24, i64 noundef 8192)
  ret void
}

; Function Attrs: nounwind uwtable
define internal i64 @gistBuffersGetFreeBlock(ptr noundef %0) #0 {
  %2 = alloca i64, align 8
  %3 = alloca ptr, align 8
  store ptr %0, ptr %3, align 8
  %4 = load ptr, ptr %3, align 8
  %5 = getelementptr inbounds nuw %struct.GISTBuildBuffers, ptr %4, i32 0, i32 4
  %6 = load i32, ptr %5, align 8
  %7 = icmp sgt i32 %6, 0
  br i1 %7, label %8, label %19

8:                                                ; preds = %1
  %9 = load ptr, ptr %3, align 8
  %10 = getelementptr inbounds nuw %struct.GISTBuildBuffers, ptr %9, i32 0, i32 3
  %11 = load ptr, ptr %10, align 8
  %12 = load ptr, ptr %3, align 8
  %13 = getelementptr inbounds nuw %struct.GISTBuildBuffers, ptr %12, i32 0, i32 4
  %14 = load i32, ptr %13, align 8
  %15 = add i32 %14, -1
  store i32 %15, ptr %13, align 8
  %16 = sext i32 %15 to i64
  %17 = getelementptr inbounds i64, ptr %11, i64 %16
  %18 = load i64, ptr %17, align 8
  store i64 %18, ptr %2, align 8
  br label %24

19:                                               ; preds = %1
  %20 = load ptr, ptr %3, align 8
  %21 = getelementptr inbounds nuw %struct.GISTBuildBuffers, ptr %20, i32 0, i32 2
  %22 = load i64, ptr %21, align 8
  %23 = add i64 %22, 1
  store i64 %23, ptr %21, align 8
  store i64 %22, ptr %2, align 8
  br label %24

24:                                               ; preds = %19, %8
  %25 = load i64, ptr %2, align 8
  ret i64 %25
}

; Function Attrs: inlinehint nounwind uwtable
define internal i64 @IndexTupleSize(ptr noundef %0) #3 {
  %2 = alloca ptr, align 8
  store ptr %0, ptr %2, align 8
  %3 = load ptr, ptr %2, align 8
  %4 = getelementptr inbounds nuw %struct.IndexTupleData, ptr %3, i32 0, i32 1
  %5 = load i16, ptr %4, align 2
  %6 = zext i16 %5 to i32
  %7 = and i32 %6, 8191
  %8 = sext i32 %7 to i64
  ret i64 %8
}

; Function Attrs: nounwind uwtable
define internal void @gistAddLoadedBuffer(ptr noundef %0, ptr noundef %1) #0 {
  %3 = alloca ptr, align 8
  %4 = alloca ptr, align 8
  store ptr %0, ptr %3, align 8
  store ptr %1, ptr %4, align 8
  %5 = load ptr, ptr %4, align 8
  %6 = getelementptr inbounds nuw %struct.GISTNodeBuffer, ptr %5, i32 0, i32 5
  %7 = load i8, ptr %6, align 1, !range !4, !noundef !5
  %8 = trunc i8 %7 to i1
  br i1 %8, label %9, label %10

9:                                                ; preds = %2
  br label %48

10:                                               ; preds = %2
  %11 = load ptr, ptr %3, align 8
  %12 = getelementptr inbounds nuw %struct.GISTBuildBuffers, ptr %11, i32 0, i32 13
  %13 = load i32, ptr %12, align 8
  %14 = load ptr, ptr %3, align 8
  %15 = getelementptr inbounds nuw %struct.GISTBuildBuffers, ptr %14, i32 0, i32 14
  %16 = load i32, ptr %15, align 4
  %17 = icmp sge i32 %13, %16
  br i1 %17, label %18, label %34

18:                                               ; preds = %10
  %19 = load ptr, ptr %3, align 8
  %20 = getelementptr inbounds nuw %struct.GISTBuildBuffers, ptr %19, i32 0, i32 14
  %21 = load i32, ptr %20, align 4
  %22 = mul i32 %21, 2
  store i32 %22, ptr %20, align 4
  %23 = load ptr, ptr %3, align 8
  %24 = getelementptr inbounds nuw %struct.GISTBuildBuffers, ptr %23, i32 0, i32 12
  %25 = load ptr, ptr %24, align 8
  %26 = load ptr, ptr %3, align 8
  %27 = getelementptr inbounds nuw %struct.GISTBuildBuffers, ptr %26, i32 0, i32 14
  %28 = load i32, ptr %27, align 4
  %29 = sext i32 %28 to i64
  %30 = mul i64 %29, 8
  %31 = call ptr @repalloc(ptr noundef %25, i64 noundef %30)
  %32 = load ptr, ptr %3, align 8
  %33 = getelementptr inbounds nuw %struct.GISTBuildBuffers, ptr %32, i32 0, i32 12
  store ptr %31, ptr %33, align 8
  br label %34

34:                                               ; preds = %18, %10
  %35 = load ptr, ptr %4, align 8
  %36 = load ptr, ptr %3, align 8
  %37 = getelementptr inbounds nuw %struct.GISTBuildBuffers, ptr %36, i32 0, i32 12
  %38 = load ptr, ptr %37, align 8
  %39 = load ptr, ptr %3, align 8
  %40 = getelementptr inbounds nuw %struct.GISTBuildBuffers, ptr %39, i32 0, i32 13
  %41 = load i32, ptr %40, align 8
  %42 = sext i32 %41 to i64
  %43 = getelementptr inbounds ptr, ptr %38, i64 %42
  store ptr %35, ptr %43, align 8
  %44 = load ptr, ptr %3, align 8
  %45 = getelementptr inbounds nuw %struct.GISTBuildBuffers, ptr %44, i32 0, i32 13
  %46 = load i32, ptr %45, align 8
  %47 = add i32 %46, 1
  store i32 %47, ptr %45, align 8
  br label %48

48:                                               ; preds = %34, %9
  ret void
}

; Function Attrs: nounwind uwtable
define internal ptr @gistAllocateNewPageBuffer(ptr noundef %0) #0 {
  %2 = alloca ptr, align 8
  %3 = alloca ptr, align 8
  store ptr %0, ptr %2, align 8
  call void @llvm.lifetime.start.p0(i64 8, ptr %3) #7
  %4 = load ptr, ptr %2, align 8
  %5 = getelementptr inbounds nuw %struct.GISTBuildBuffers, ptr %4, i32 0, i32 0
  %6 = load ptr, ptr %5, align 8
  %7 = call ptr @MemoryContextAllocZero(ptr noundef %6, i64 noundef 8192)
  store ptr %7, ptr %3, align 8
  %8 = load ptr, ptr %3, align 8
  %9 = getelementptr inbounds nuw %struct.GISTNodeBufferPage, ptr %8, i32 0, i32 0
  store i32 -1, ptr %9, align 4
  %10 = load ptr, ptr %3, align 8
  %11 = getelementptr inbounds nuw %struct.GISTNodeBufferPage, ptr %10, i32 0, i32 1
  store i32 8184, ptr %11, align 4
  %12 = load ptr, ptr %3, align 8
  call void @llvm.lifetime.end.p0(i64 8, ptr %3) #7
  ret ptr %12
}

; Function Attrs: inlinehint nounwind uwtable
define internal ptr @MemoryContextSwitchTo(ptr noundef %0) #3 {
  %2 = alloca ptr, align 8
  %3 = alloca ptr, align 8
  store ptr %0, ptr %2, align 8
  call void @llvm.lifetime.start.p0(i64 8, ptr %3) #7
  %4 = load ptr, ptr @CurrentMemoryContext, align 8
  store ptr %4, ptr %3, align 8
  %5 = load ptr, ptr %2, align 8
  store ptr %5, ptr @CurrentMemoryContext, align 8
  %6 = load ptr, ptr %3, align 8
  call void @llvm.lifetime.end.p0(i64 8, ptr %3) #7
  ret ptr %6
}

; Function Attrs: nounwind uwtable
define dso_local void @gistPushItupToNodeBuffer(ptr noundef %0, ptr noundef %1, ptr noundef %2) #0 {
  %4 = alloca ptr, align 8
  %5 = alloca ptr, align 8
  %6 = alloca ptr, align 8
  %7 = alloca ptr, align 8
  %8 = alloca i32, align 4
  store ptr %0, ptr %4, align 8
  store ptr %1, ptr %5, align 8
  store ptr %2, ptr %6, align 8
  call void @llvm.lifetime.start.p0(i64 8, ptr %7) #7
  %9 = load ptr, ptr %4, align 8
  %10 = getelementptr inbounds nuw %struct.GISTBuildBuffers, ptr %9, i32 0, i32 0
  %11 = load ptr, ptr %10, align 8
  %12 = call ptr @MemoryContextSwitchTo(ptr noundef %11)
  store ptr %12, ptr %7, align 8
  %13 = load ptr, ptr %5, align 8
  %14 = getelementptr inbounds nuw %struct.GISTNodeBuffer, ptr %13, i32 0, i32 1
  %15 = load i32, ptr %14, align 4
  %16 = icmp eq i32 %15, 0
  br i1 %16, label %17, label %26

17:                                               ; preds = %3
  %18 = load ptr, ptr %4, align 8
  %19 = call ptr @gistAllocateNewPageBuffer(ptr noundef %18)
  %20 = load ptr, ptr %5, align 8
  %21 = getelementptr inbounds nuw %struct.GISTNodeBuffer, ptr %20, i32 0, i32 3
  store ptr %19, ptr %21, align 8
  %22 = load ptr, ptr %5, align 8
  %23 = getelementptr inbounds nuw %struct.GISTNodeBuffer, ptr %22, i32 0, i32 1
  store i32 1, ptr %23, align 4
  %24 = load ptr, ptr %4, align 8
  %25 = load ptr, ptr %5, align 8
  call void @gistAddLoadedBuffer(ptr noundef %24, ptr noundef %25)
  br label %26

26:                                               ; preds = %17, %3
  %27 = load ptr, ptr %5, align 8
  %28 = getelementptr inbounds nuw %struct.GISTNodeBuffer, ptr %27, i32 0, i32 3
  %29 = load ptr, ptr %28, align 8
  %30 = icmp ne ptr %29, null
  br i1 %30, label %34, label %31

31:                                               ; preds = %26
  %32 = load ptr, ptr %4, align 8
  %33 = load ptr, ptr %5, align 8
  call void @gistLoadNodeBuffer(ptr noundef %32, ptr noundef %33)
  br label %34

34:                                               ; preds = %31, %26
  %35 = load ptr, ptr %5, align 8
  %36 = getelementptr inbounds nuw %struct.GISTNodeBuffer, ptr %35, i32 0, i32 3
  %37 = load ptr, ptr %36, align 8
  %38 = getelementptr inbounds nuw %struct.GISTNodeBufferPage, ptr %37, i32 0, i32 1
  %39 = load i32, ptr %38, align 4
  %40 = zext i32 %39 to i64
  %41 = load ptr, ptr %6, align 8
  %42 = call i64 @IndexTupleSize(ptr noundef %41)
  %43 = add i64 %42, 7
  %44 = and i64 %43, -8
  %45 = icmp ult i64 %40, %44
  br i1 %45, label %46, label %71

46:                                               ; preds = %34
  call void @llvm.lifetime.start.p0(i64 4, ptr %8) #7
  %47 = load ptr, ptr %4, align 8
  %48 = call i64 @gistBuffersGetFreeBlock(ptr noundef %47)
  %49 = trunc i64 %48 to i32
  store i32 %49, ptr %8, align 4
  %50 = load ptr, ptr %4, align 8
  %51 = getelementptr inbounds nuw %struct.GISTBuildBuffers, ptr %50, i32 0, i32 1
  %52 = load ptr, ptr %51, align 8
  %53 = load i32, ptr %8, align 4
  %54 = zext i32 %53 to i64
  %55 = load ptr, ptr %5, align 8
  %56 = getelementptr inbounds nuw %struct.GISTNodeBuffer, ptr %55, i32 0, i32 3
  %57 = load ptr, ptr %56, align 8
  call void @WriteTempFileBlock(ptr noundef %52, i64 noundef %54, ptr noundef %57)
  %58 = load ptr, ptr %5, align 8
  %59 = getelementptr inbounds nuw %struct.GISTNodeBuffer, ptr %58, i32 0, i32 3
  %60 = load ptr, ptr %59, align 8
  %61 = getelementptr inbounds nuw %struct.GISTNodeBufferPage, ptr %60, i32 0, i32 1
  store i32 8184, ptr %61, align 4
  %62 = load i32, ptr %8, align 4
  %63 = load ptr, ptr %5, align 8
  %64 = getelementptr inbounds nuw %struct.GISTNodeBuffer, ptr %63, i32 0, i32 3
  %65 = load ptr, ptr %64, align 8
  %66 = getelementptr inbounds nuw %struct.GISTNodeBufferPage, ptr %65, i32 0, i32 0
  store i32 %62, ptr %66, align 4
  %67 = load ptr, ptr %5, align 8
  %68 = getelementptr inbounds nuw %struct.GISTNodeBuffer, ptr %67, i32 0, i32 1
  %69 = load i32, ptr %68, align 4
  %70 = add i32 %69, 1
  store i32 %70, ptr %68, align 4
  call void @llvm.lifetime.end.p0(i64 4, ptr %8) #7
  br label %71

71:                                               ; preds = %46, %34
  %72 = load ptr, ptr %5, align 8
  %73 = getelementptr inbounds nuw %struct.GISTNodeBuffer, ptr %72, i32 0, i32 3
  %74 = load ptr, ptr %73, align 8
  %75 = load ptr, ptr %6, align 8
  call void @gistPlaceItupToPage(ptr noundef %74, ptr noundef %75)
  %76 = load ptr, ptr %5, align 8
  %77 = getelementptr inbounds nuw %struct.GISTNodeBuffer, ptr %76, i32 0, i32 1
  %78 = load i32, ptr %77, align 4
  %79 = load ptr, ptr %4, align 8
  %80 = getelementptr inbounds nuw %struct.GISTBuildBuffers, ptr %79, i32 0, i32 9
  %81 = load i32, ptr %80, align 4
  %82 = sdiv i32 %81, 2
  %83 = icmp sgt i32 %78, %82
  br i1 %83, label %84, label %99

84:                                               ; preds = %71
  %85 = load ptr, ptr %5, align 8
  %86 = getelementptr inbounds nuw %struct.GISTNodeBuffer, ptr %85, i32 0, i32 4
  %87 = load i8, ptr %86, align 8, !range !4, !noundef !5
  %88 = trunc i8 %87 to i1
  br i1 %88, label %99, label %89

89:                                               ; preds = %84
  %90 = load ptr, ptr %5, align 8
  %91 = load ptr, ptr %4, align 8
  %92 = getelementptr inbounds nuw %struct.GISTBuildBuffers, ptr %91, i32 0, i32 7
  %93 = load ptr, ptr %92, align 8
  %94 = call ptr @lcons(ptr noundef %90, ptr noundef %93)
  %95 = load ptr, ptr %4, align 8
  %96 = getelementptr inbounds nuw %struct.GISTBuildBuffers, ptr %95, i32 0, i32 7
  store ptr %94, ptr %96, align 8
  %97 = load ptr, ptr %5, align 8
  %98 = getelementptr inbounds nuw %struct.GISTNodeBuffer, ptr %97, i32 0, i32 4
  store i8 1, ptr %98, align 8
  br label %99

99:                                               ; preds = %89, %84, %71
  %100 = load ptr, ptr %7, align 8
  %101 = call ptr @MemoryContextSwitchTo(ptr noundef %100)
  call void @llvm.lifetime.end.p0(i64 8, ptr %7) #7
  ret void
}