; Function Attrs: nounwind uwtable
define dso_local void @gistPushItupToNodeBuffer(ptr noundef captures(none) %0, ptr noundef %1, ptr noundef readonly captures(none) %2) local_unnamed_addr #0 {
  %4 = load ptr, ptr %0, align 8
  %5 = load ptr, ptr @CurrentMemoryContext, align 8
  store ptr %4, ptr @CurrentMemoryContext, align 8
  %6 = getelementptr inbounds nuw i8, ptr %1, i64 4
  %7 = load i32, ptr %6, align 4
  %8 = icmp eq i32 %7, 0
  br i1 %8, label %9, label %gistAddLoadedBuffer.exit

9:                                                ; preds = %3
  %10 = tail call noundef ptr @MemoryContextAllocZero(ptr noundef %4, i64 noundef 8192) #6
  store i32 -1, ptr %10, align 4
  %11 = getelementptr inbounds nuw i8, ptr %10, i64 4
  store i32 8184, ptr %11, align 4
  %12 = getelementptr inbounds nuw i8, ptr %1, i64 16
  store ptr %10, ptr %12, align 8
  store i32 1, ptr %6, align 4
  %13 = getelementptr inbounds nuw i8, ptr %1, i64 25
  %14 = load i8, ptr %13, align 1, !range !4, !noundef !5
  %15 = trunc nuw i8 %14 to i1
  br i1 %15, label %gistAddLoadedBuffer.exit, label %16

16:                                               ; preds = %9
  %17 = getelementptr inbounds nuw i8, ptr %0, i64 88
  %18 = load i32, ptr %17, align 8
  %19 = getelementptr inbounds nuw i8, ptr %0, i64 92
  %20 = load i32, ptr %19, align 4
  %.not.i = icmp slt i32 %18, %20
  br i1 %.not.i, label %._crit_edge.i, label %21

._crit_edge.i:                                    ; preds = %16
  %.phi.trans.insert.i = getelementptr inbounds nuw i8, ptr %0, i64 80
  %.pre.i = load ptr, ptr %.phi.trans.insert.i, align 8
  br label %28

21:                                               ; preds = %16
  %22 = shl i32 %20, 1
  store i32 %22, ptr %19, align 4
  %23 = getelementptr inbounds nuw i8, ptr %0, i64 80
  %24 = load ptr, ptr %23, align 8
  %25 = sext i32 %22 to i64
  %26 = shl nsw i64 %25, 3
  %27 = tail call ptr @repalloc(ptr noundef %24, i64 noundef %26) #6
  store ptr %27, ptr %23, align 8
  %.pre11.i = load i32, ptr %17, align 8
  br label %28

28:                                               ; preds = %21, %._crit_edge.i
  %29 = phi i32 [ %18, %._crit_edge.i ], [ %.pre11.i, %21 ]
  %30 = phi ptr [ %.pre.i, %._crit_edge.i ], [ %27, %21 ]
  %31 = sext i32 %29 to i64
  %32 = getelementptr inbounds ptr, ptr %30, i64 %31
  store ptr %1, ptr %32, align 8
  %33 = load i32, ptr %17, align 8
  %34 = add i32 %33, 1
  store i32 %34, ptr %17, align 8
  br label %gistAddLoadedBuffer.exit

gistAddLoadedBuffer.exit:                         ; preds = %28, %9, %3
  %35 = getelementptr inbounds nuw i8, ptr %1, i64 16
  %36 = load ptr, ptr %35, align 8
  %.not = icmp eq ptr %36, null
  br i1 %.not, label %37, label %38

37:                                               ; preds = %gistAddLoadedBuffer.exit
  tail call fastcc void @gistLoadNodeBuffer(ptr noundef nonnull %0, ptr noundef nonnull %1)
  %.pre = load ptr, ptr %35, align 8
  br label %38

38:                                               ; preds = %37, %gistAddLoadedBuffer.exit
  %39 = phi ptr [ %.pre, %37 ], [ %36, %gistAddLoadedBuffer.exit ]
  %40 = getelementptr inbounds nuw i8, ptr %39, i64 4
  %41 = load i32, ptr %40, align 4
  %42 = getelementptr i8, ptr %2, i64 6
  %.val29 = load i16, ptr %42, align 2
  %43 = and i16 %.val29, 8191
  %narrow = add nuw nsw i16 %43, 7
  %44 = and i16 %narrow, 16376
  %45 = zext nneg i16 %44 to i32
  %46 = icmp ult i32 %41, %45
  br i1 %46, label %47, label %76

47:                                               ; preds = %38
  %48 = getelementptr inbounds nuw i8, ptr %0, i64 32
  %49 = load i32, ptr %48, align 8
  %50 = icmp sgt i32 %49, 0
  br i1 %50, label %51, label %58

51:                                               ; preds = %47
  %52 = getelementptr inbounds nuw i8, ptr %0, i64 24
  %53 = load ptr, ptr %52, align 8
  %54 = add nsw i32 %49, -1
  store i32 %54, ptr %48, align 8
  %55 = zext nneg i32 %54 to i64
  %56 = getelementptr inbounds nuw i64, ptr %53, i64 %55
  %57 = load i64, ptr %56, align 8
  br label %gistBuffersGetFreeBlock.exit

58:                                               ; preds = %47
  %59 = getelementptr inbounds nuw i8, ptr %0, i64 16
  %60 = load i64, ptr %59, align 8
  %61 = add i64 %60, 1
  store i64 %61, ptr %59, align 8
  br label %gistBuffersGetFreeBlock.exit

gistBuffersGetFreeBlock.exit:                     ; preds = %51, %58
  %.0.i = phi i64 [ %57, %51 ], [ %60, %58 ]
  %62 = getelementptr inbounds nuw i8, ptr %0, i64 8
  %63 = load ptr, ptr %62, align 8
  %64 = and i64 %.0.i, 4294967295
  %65 = load ptr, ptr %35, align 8
  %66 = tail call i32 @BufFileSeekBlock(ptr noundef %63, i64 noundef range(i64 0, 4294967296) %64) #6
  %.not.i30 = icmp eq i32 %66, 0
  br i1 %.not.i30, label %WriteTempFileBlock.exit, label %67

67:                                               ; preds = %gistBuffersGetFreeBlock.exit
  %68 = tail call zeroext i1 @errstart_cold(i32 noundef 21, ptr noundef null) #7
  tail call void @llvm.assume(i1 %68)
  %69 = tail call i32 (ptr, ...) @errmsg_internal(ptr noundef nonnull @.str.1, i64 noundef range(i64 0, 4294967296) %64) #6
  tail call void @errfinish(ptr noundef nonnull @.str.2, i32 noundef 761, ptr noundef nonnull @__func__.WriteTempFileBlock) #6
  unreachable

WriteTempFileBlock.exit:                          ; preds = %gistBuffersGetFreeBlock.exit
  %70 = trunc i64 %.0.i to i32
  tail call void @BufFileWrite(ptr noundef %63, ptr noundef %65, i64 noundef 8192) #6
  %71 = load ptr, ptr %35, align 8
  %72 = getelementptr inbounds nuw i8, ptr %71, i64 4
  store i32 8184, ptr %72, align 4
  %73 = load ptr, ptr %35, align 8
  store i32 %70, ptr %73, align 4
  %74 = load i32, ptr %6, align 4
  %75 = add i32 %74, 1
  store i32 %75, ptr %6, align 4
  %.pre31 = load ptr, ptr %35, align 8
  %.val.i.pre = load i16, ptr %42, align 2
  %.phi.trans.insert = getelementptr inbounds nuw i8, ptr %.pre31, i64 4
  %.pre33 = load i32, ptr %.phi.trans.insert, align 4
  %.pre34 = and i16 %.val.i.pre, 8191
  %.pre35 = add nuw nsw i16 %.pre34, 7
  %.pre36 = and i16 %.pre35, 16376
  %.pre38 = zext nneg i16 %.pre36 to i32
  br label %76

76:                                               ; preds = %WriteTempFileBlock.exit, %38
  %.pre-phi39 = phi i32 [ %.pre38, %WriteTempFileBlock.exit ], [ %45, %38 ]
  %.pre-phi = phi i16 [ %.pre34, %WriteTempFileBlock.exit ], [ %43, %38 ]
  %77 = phi i32 [ %.pre33, %WriteTempFileBlock.exit ], [ %41, %38 ]
  %78 = phi ptr [ %.pre31, %WriteTempFileBlock.exit ], [ %39, %38 ]
  %79 = zext nneg i16 %.pre-phi to i64
  %80 = getelementptr inbounds nuw i8, ptr %78, i64 4
  %81 = sub i32 %77, %.pre-phi39
  store i32 %81, ptr %80, align 4
  %82 = getelementptr inbounds nuw i8, ptr %78, i64 8
  %83 = zext i32 %81 to i64
  %84 = getelementptr inbounds nuw i8, ptr %82, i64 %83
  tail call void @llvm.memcpy.p0.p0.i64(ptr nonnull align 1 %84, ptr nonnull readonly align 2 %2, i64 %79, i1 false)
  %85 = load i32, ptr %6, align 4
  %86 = getelementptr inbounds nuw i8, ptr %0, i64 60
  %87 = load i32, ptr %86, align 4
  %88 = sdiv i32 %87, 2
  %89 = icmp sgt i32 %85, %88
  br i1 %89, label %90, label %98

90:                                               ; preds = %76
  %91 = getelementptr inbounds nuw i8, ptr %1, i64 24
  %92 = load i8, ptr %91, align 8, !range !4, !noundef !5
  %93 = trunc nuw i8 %92 to i1
  br i1 %93, label %98, label %94

94:                                               ; preds = %90
  %95 = getelementptr inbounds nuw i8, ptr %0, i64 48
  %96 = load ptr, ptr %95, align 8
  %97 = tail call ptr @lcons(ptr noundef nonnull %1, ptr noundef %96) #6
  store ptr %97, ptr %95, align 8
  store i8 1, ptr %91, align 8
  br label %98

98:                                               ; preds = %94, %90, %76
  store ptr %5, ptr @CurrentMemoryContext, align 8
  ret void
}